target datalayout = "e-m:e-p270:32:32-p271:32:32-p272:64:64-i64:64-i128:128-f80:128-n8:16:32:64-S128"
target triple = "x86_64-pc-linux-gnu"

%struct.AVFilterContext = type { ptr, ptr, ptr, ptr, ptr, i32, ptr, ptr, i32, ptr, ptr, i32, i32, ptr, ptr, ptr, ptr, i32, ptr, i32, i32 }
%struct.CrystalizerContext = type { ptr, float, i32, ptr, [2 x [2 x ptr]] }
%struct.AVFilterLink = type { ptr, ptr, ptr, ptr, i32, i32, i32, i32, %struct.AVRational, i32, i32, i32, %struct.AVChannelLayout, %struct.AVRational, ptr, i32, %struct.AVFilterFormatsConfig, %struct.AVFilterFormatsConfig }
%struct.AVChannelLayout = type { i32, i32, %union.anon.1, ptr }
%union.anon.1 = type { i64 }
%struct.AVRational = type { i32, i32 }
%struct.AVFilterFormatsConfig = type { ptr, ptr, ptr, ptr, ptr }

; Function Attrs: nounwind uwtable
define internal i32 @config_input(ptr noundef %0) #2 {
  %2 = alloca i32, align 4
  %3 = alloca ptr, align 8
  %4 = alloca ptr, align 8
  %5 = alloca ptr, align 8
  %6 = alloca i32, align 4
  store ptr %0, ptr %3, align 8, !tbaa !24
  call void @llvm.lifetime.start.p0(i64 8, ptr %4) #7
  %7 = load ptr, ptr %3, align 8, !tbaa !24
  %8 = getelementptr inbounds nuw %struct.AVFilterLink, ptr %7, i32 0, i32 2
  %9 = load ptr, ptr %8, align 8, !tbaa !28
  store ptr %9, ptr %4, align 8, !tbaa !4
  call void @llvm.lifetime.start.p0(i64 8, ptr %5) #7
  %10 = load ptr, ptr %4, align 8, !tbaa !4
  %11 = getelementptr inbounds nuw %struct.AVFilterContext, ptr %10, i32 0, i32 9
  %12 = load ptr, ptr %11, align 8, !tbaa !9
  store ptr %12, ptr %5, align 8, !tbaa !22
  %13 = load ptr, ptr %3, align 8, !tbaa !24
  %14 = getelementptr inbounds nuw %struct.AVFilterLink, ptr %13, i32 0, i32 5
  %15 = load i32, ptr %14, align 4, !tbaa !60
  switch i32 %15, label %84 [
    i32 3, label %16
    i32 8, label %33
    i32 4, label %50
    i32 9, label %67
  ]

16:                                               ; preds = %1
  %17 = load ptr, ptr %5, align 8, !tbaa !22
  %18 = getelementptr inbounds nuw %struct.CrystalizerContext, ptr %17, i32 0, i32 4
  %19 = getelementptr inbounds [2 x [2 x ptr]], ptr %18, i64 0, i64 0
  %20 = getelementptr inbounds [2 x ptr], ptr %19, i64 0, i64 0
  store ptr @filter_inverse_flt_noclip, ptr %20, align 8, !tbaa !58
  %21 = load ptr, ptr %5, align 8, !tbaa !22
  %22 = getelementptr inbounds nuw %struct.CrystalizerContext, ptr %21, i32 0, i32 4
  %23 = getelementptr inbounds [2 x [2 x ptr]], ptr %22, i64 0, i64 1
  %24 = getelementptr inbounds [2 x ptr], ptr %23, i64 0, i64 0
  store ptr @filter_noinverse_flt_noclip, ptr %24, align 8, !tbaa !58
  %25 = load ptr, ptr %5, align 8, !tbaa !22
  %26 = getelementptr inbounds nuw %struct.CrystalizerContext, ptr %25, i32 0, i32 4
  %27 = getelementptr inbounds [2 x [2 x ptr]], ptr %26, i64 0, i64 0
  %28 = getelementptr inbounds [2 x ptr], ptr %27, i64 0, i64 1
  store ptr @filter_inverse_flt_clip, ptr %28, align 8, !tbaa !58
  %29 = load ptr, ptr %5, align 8, !tbaa !22
  %30 = getelementptr inbounds nuw %struct.CrystalizerContext, ptr %29, i32 0, i32 4
  %31 = getelementptr inbounds [2 x [2 x ptr]], ptr %30, i64 0, i64 1
  %32 = getelementptr inbounds [2 x ptr], ptr %31, i64 0, i64 1
  store ptr @filter_noinverse_flt_clip, ptr %32, align 8, !tbaa !58
  br label %85

33:                                               ; preds = %1
  %34 = load ptr, ptr %5, align 8, !tbaa !22
  %35 = getelementptr inbounds nuw %struct.CrystalizerContext, ptr %34, i32 0, i32 4
  %36 = getelementptr inbounds [2 x [2 x ptr]], ptr %35, i64 0, i64 0
  %37 = getelementptr inbounds [2 x ptr], ptr %36, i64 0, i64 0
  store ptr @filter_inverse_fltp_noclip, ptr %37, align 8, !tbaa !58
  %38 = load ptr, ptr %5, align 8, !tbaa !22
  %39 = getelementptr inbounds nuw %struct.CrystalizerContext, ptr %38, i32 0, i32 4
  %40 = getelementptr inbounds [2 x [2 x ptr]], ptr %39, i64 0, i64 1
  %41 = getelementptr inbounds [2 x ptr], ptr %40, i64 0, i64 0
  store ptr @filter_noinverse_fltp_noclip, ptr %41, align 8, !tbaa !58
  %42 = load ptr, ptr %5, align 8, !tbaa !22
  %43 = getelementptr inbounds nuw %struct.CrystalizerContext, ptr %42, i32 0, i32 4
  %44 = getelementptr inbounds [2 x [2 x ptr]], ptr %43, i64 0, i64 0
  %45 = getelementptr inbounds [2 x ptr], ptr %44, i64 0, i64 1
  store ptr @filter_inverse_fltp_clip, ptr %45, align 8, !tbaa !58
  %46 = load ptr, ptr %5, align 8, !tbaa !22
  %47 = getelementptr inbounds nuw %struct.CrystalizerContext, ptr %46, i32 0, i32 4
  %48 = getelementptr inbounds [2 x [2 x ptr]], ptr %47, i64 0, i64 1
  %49 = getelementptr inbounds [2 x ptr], ptr %48, i64 0, i64 1
  store ptr @filter_noinverse_fltp_clip, ptr %49, align 8, !tbaa !58
  br label %85

50:                                               ; preds = %1
  %51 = load ptr, ptr %5, align 8, !tbaa !22
  %52 = getelementptr inbounds nuw %struct.CrystalizerContext, ptr %51, i32 0, i32 4
  %53 = getelementptr inbounds [2 x [2 x ptr]], ptr %52, i64 0, i64 0
  %54 = getelementptr inbounds [2 x ptr], ptr %53, i64 0, i64 0
  store ptr @filter_inverse_dbl_noclip, ptr %54, align 8, !tbaa !58
  %55 = load ptr, ptr %5, align 8, !tbaa !22
  %56 = getelementptr inbounds nuw %struct.CrystalizerContext, ptr %55, i32 0, i32 4
  %57 = getelementptr inbounds [2 x [2 x ptr]], ptr %56, i64 0, i64 1
  %58 = getelementptr inbounds [2 x ptr], ptr %57, i64 0, i64 0
  store ptr @filter_noinverse_dbl_noclip, ptr %58, align 8, !tbaa !58
  %59 = load ptr, ptr %5, align 8, !tbaa !22
  %60 = getelementptr inbounds nuw %struct.CrystalizerContext, ptr %59, i32 0, i32 4
  %61 = getelementptr inbounds [2 x [2 x ptr]], ptr %60, i64 0, i64 0
  %62 = getelementptr inbounds [2 x ptr], ptr %61, i64 0, i64 1
  store ptr @filter_inverse_dbl_clip, ptr %62, align 8, !tbaa !58
  %63 = load ptr, ptr %5, align 8, !tbaa !22
  %64 = getelementptr inbounds nuw %struct.CrystalizerContext, ptr %63, i32 0, i32 4
  %65 = getelementptr inbounds [2 x [2 x ptr]], ptr %64, i64 0, i64 1
  %66 = getelementptr inbounds [2 x ptr], ptr %65, i64 0, i64 1
  store ptr @filter_noinverse_dbl_clip, ptr %66, align 8, !tbaa !58
  br label %85

67:                                               ; preds = %1
  %68 = load ptr, ptr %5, align 8, !tbaa !22
  %69 = getelementptr inbounds nuw %struct.CrystalizerContext, ptr %68, i32 0, i32 4
  %70 = getelementptr inbounds [2 x [2 x ptr]], ptr %69, i64 0, i64 0
  %71 = getelementptr inbounds [2 x ptr], ptr %70, i64 0, i64 0
  store ptr @filter_inverse_dblp_noclip, ptr %71, align 8, !tbaa !58
  %72 = load ptr, ptr %5, align 8, !tbaa !22
  %73 = getelementptr inbounds nuw %struct.CrystalizerContext, ptr %72, i32 0, i32 4
  %74 = getelementptr inbounds [2 x [2 x ptr]], ptr %73, i64 0, i64 1
  %75 = getelementptr inbounds [2 x ptr], ptr %74, i64 0, i64 0
  store ptr @filter_noinverse_dblp_noclip, ptr %75, align 8, !tbaa !58
  %76 = load ptr, ptr %5, align 8, !tbaa !22
  %77 = getelementptr inbounds nuw %struct.CrystalizerContext, ptr %76, i32 0, i32 4
  %78 = getelementptr inbounds [2 x [2 x ptr]], ptr %77, i64 0, i64 0
  %79 = getelementptr inbounds [2 x ptr], ptr %78, i64 0, i64 1
  store ptr @filter_inverse_dblp_clip, ptr %79, align 8, !tbaa !58
  %80 = load ptr, ptr %5, align 8, !tbaa !22
  %81 = getelementptr inbounds nuw %struct.CrystalizerContext, ptr %80, i32 0, i32 4
  %82 = getelementptr inbounds [2 x [2 x ptr]], ptr %81, i64 0, i64 1
  %83 = getelementptr inbounds [2 x ptr], ptr %82, i64 0, i64 1
  store ptr @filter_noinverse_dblp_clip, ptr %83, align 8, !tbaa !58
  br label %85

84:                                               ; preds = %1
  store i32 -558323010, ptr %2, align 4
  store i32 1, ptr %6, align 4
  br label %86

85:                                               ; preds = %67, %50, %33, %16
  store i32 0, ptr %2, align 4
  store i32 1, ptr %6, align 4
  br label %86

86:                                               ; preds = %85, %84
  call void @llvm.lifetime.end.p0(i64 8, ptr %5) #7
  call void @llvm.lifetime.end.p0(i64 8, ptr %4) #7
  %87 = load i32, ptr %2, align 4
  ret i32 %87
}