; Function Attrs: mustprogress nofree norecurse nosync nounwind willreturn memory(readwrite, inaccessiblemem: none) uwtable
define internal range(i32 -558323010, 1) i32 @config_input(ptr noundef readonly captures(none) %0) #3 {
  %2 = getelementptr inbounds nuw i8, ptr %0, i64 36
  %3 = load i32, ptr %2, align 4, !tbaa !57
  %switch.tableidx = add i32 %3, -3
  %4 = icmp ult i32 %switch.tableidx, 7
  %switch.maskindex = trunc i32 %switch.tableidx to i8
  %switch.shifted = lshr i8 99, %switch.maskindex
  %switch.lobit = trunc i8 %switch.shifted to i1
  %or.cond = select i1 %4, i1 %switch.lobit, i1 false
  br i1 %or.cond, label %switch.lookup, label %17

switch.lookup:                                    ; preds = %1
  %5 = getelementptr inbounds nuw i8, ptr %0, i64 16
  %6 = load ptr, ptr %5, align 8, !tbaa !22
  %7 = getelementptr inbounds nuw i8, ptr %6, i64 72
  %8 = load ptr, ptr %7, align 8, !tbaa !4
  %9 = zext nneg i32 %switch.tableidx to i64
  %switch.gep = getelementptr inbounds nuw [7 x ptr], ptr @switch.table.config_input, i64 0, i64 %9
  %switch.load = load ptr, ptr %switch.gep, align 8
  %10 = zext nneg i32 %switch.tableidx to i64
  %switch.gep19 = getelementptr inbounds nuw [7 x ptr], ptr @switch.table.config_input.1, i64 0, i64 %10
  %switch.load20 = load ptr, ptr %switch.gep19, align 8
  %11 = zext nneg i32 %switch.tableidx to i64
  %switch.gep21 = getelementptr inbounds nuw [7 x ptr], ptr @switch.table.config_input.2, i64 0, i64 %11
  %switch.load22 = load ptr, ptr %switch.gep21, align 8
  %12 = zext nneg i32 %switch.tableidx to i64
  %switch.gep23 = getelementptr inbounds nuw [7 x ptr], ptr @switch.table.config_input.3, i64 0, i64 %12
  %switch.load24 = load ptr, ptr %switch.gep23, align 8
  %13 = getelementptr inbounds nuw i8, ptr %8, i64 24
  store ptr %switch.load, ptr %13, align 8, !tbaa !55
  %14 = getelementptr inbounds nuw i8, ptr %8, i64 40
  store ptr %switch.load20, ptr %14, align 8, !tbaa !55
  %15 = getelementptr inbounds nuw i8, ptr %8, i64 32
  store ptr %switch.load22, ptr %15, align 8, !tbaa !55
  %16 = getelementptr inbounds nuw i8, ptr %8, i64 48
  store ptr %switch.load24, ptr %16, align 8, !tbaa !55
  br label %17

17:                                               ; preds = %1, %switch.lookup
  %.0 = phi i32 [ -558323010, %1 ], [ 0, %switch.lookup ]
  ret i32 %.0
}